target datalayout = "e-m:e-p270:32:32-p271:32:32-p272:64:64-i64:64-i128:128-f80:128-n8:16:32:64-S128"
target triple = "x86_64-unknown-linux-gnu"

%class.b3GpuRaycast = type { ptr, ptr }
%struct.b3GpuRaycastInternalData = type { ptr, ptr, ptr, ptr, ptr, ptr, ptr, ptr, ptr, ptr, ptr, ptr, ptr, ptr, ptr, i32 }

@_ZTV12b3GpuRaycast = dso_local unnamed_addr constant { [4 x ptr] } { [4 x ptr] [ptr null, ptr @_ZTI12b3GpuRaycast, ptr @_ZN12b3GpuRaycastD1Ev, ptr @_ZN12b3GpuRaycastD0Ev] }, align 8
@__clewReleaseKernel = external global ptr, align 8

; Function Attrs: mustprogress nounwind uwtable
define dso_local void @_ZN12b3GpuRaycastD2Ev(ptr noundef nonnull align 8 dereferenceable(16) %this) unnamed_addr #4 align 2 personality ptr @__gxx_personality_v0 {
entry:
  %this.addr = alloca ptr, align 8
  store ptr %this, ptr %this.addr, align 8
  %this1 = load ptr, ptr %this.addr, align 8
  store ptr getelementptr inbounds ({ [4 x ptr] }, ptr @_ZTV12b3GpuRaycast, i32 0, i32 0, i32 2), ptr %this1, align 8
  %0 = load ptr, ptr @__clewReleaseKernel, align 8
  %m_data = getelementptr inbounds %class.b3GpuRaycast, ptr %this1, i32 0, i32 1
  %1 = load ptr, ptr %m_data, align 8
  %m_raytraceKernel = getelementptr inbounds %struct.b3GpuRaycastInternalData, ptr %1, i32 0, i32 3
  %2 = load ptr, ptr %m_raytraceKernel, align 8
  %call = invoke i32 %0(ptr noundef %2)
          to label %invoke.cont unwind label %terminate.lpad

invoke.cont:                                      ; preds = %entry
  %3 = load ptr, ptr @__clewReleaseKernel, align 8
  %m_data2 = getelementptr inbounds %class.b3GpuRaycast, ptr %this1, i32 0, i32 1
  %4 = load ptr, ptr %m_data2, align 8
  %m_raytracePairsKernel = getelementptr inbounds %struct.b3GpuRaycastInternalData, ptr %4, i32 0, i32 4
  %5 = load ptr, ptr %m_raytracePairsKernel, align 8
  %call4 = invoke i32 %3(ptr noundef %5)
          to label %invoke.cont3 unwind label %terminate.lpad

invoke.cont3:                                     ; preds = %invoke.cont
  %6 = load ptr, ptr @__clewReleaseKernel, align 8
  %m_data5 = getelementptr inbounds %class.b3GpuRaycast, ptr %this1, i32 0, i32 1
  %7 = load ptr, ptr %m_data5, align 8
  %m_findRayRigidPairIndexRanges = getelementptr inbounds %struct.b3GpuRaycastInternalData, ptr %7, i32 0, i32 5
  %8 = load ptr, ptr %m_findRayRigidPairIndexRanges, align 8
  %call7 = invoke i32 %6(ptr noundef %8)
          to label %invoke.cont6 unwind label %terminate.lpad

invoke.cont6:                                     ; preds = %invoke.cont3
  %m_data8 = getelementptr inbounds %class.b3GpuRaycast, ptr %this1, i32 0, i32 1
  %9 = load ptr, ptr %m_data8, align 8
  %m_plbvh = getelementptr inbounds %struct.b3GpuRaycastInternalData, ptr %9, i32 0, i32 6
  %10 = load ptr, ptr %m_plbvh, align 8
  %isnull = icmp eq ptr %10, null
  br i1 %isnull, label %delete.end, label %delete.notnull

delete.notnull:                                   ; preds = %invoke.cont6
  %vtable = load ptr, ptr %10, align 8
  %vfn = getelementptr inbounds ptr, ptr %vtable, i64 1
  %11 = load ptr, ptr %vfn, align 8
  call void %11(ptr noundef nonnull align 8 dereferenceable(1096) %10) #13
  br label %delete.end

delete.end:                                       ; preds = %delete.notnull, %invoke.cont6
  %m_data9 = getelementptr inbounds %class.b3GpuRaycast, ptr %this1, i32 0, i32 1
  %12 = load ptr, ptr %m_data9, align 8
  %m_radixSorter = getelementptr inbounds %struct.b3GpuRaycastInternalData, ptr %12, i32 0, i32 7
  %13 = load ptr, ptr %m_radixSorter, align 8
  %isnull10 = icmp eq ptr %13, null
  br i1 %isnull10, label %delete.end14, label %delete.notnull11

delete.notnull11:                                 ; preds = %delete.end
  %vtable12 = load ptr, ptr %13, align 8
  %vfn13 = getelementptr inbounds ptr, ptr %vtable12, i64 1
  %14 = load ptr, ptr %vfn13, align 8
  call void %14(ptr noundef nonnull align 8 dereferenceable(128) %13) #13
  br label %delete.end14

delete.end14:                                     ; preds = %delete.notnull11, %delete.end
  %m_data15 = getelementptr inbounds %class.b3GpuRaycast, ptr %this1, i32 0, i32 1
  %15 = load ptr, ptr %m_data15, align 8
  %m_fill = getelementptr inbounds %struct.b3GpuRaycastInternalData, ptr %15, i32 0, i32 8
  %16 = load ptr, ptr %m_fill, align 8
  %isnull16 = icmp eq ptr %16, null
  br i1 %isnull16, label %delete.end20, label %delete.notnull17

delete.notnull17:                                 ; preds = %delete.end14
  %vtable18 = load ptr, ptr %16, align 8
  %vfn19 = getelementptr inbounds ptr, ptr %vtable18, i64 1
  %17 = load ptr, ptr %vfn19, align 8
  call void %17(ptr noundef nonnull align 8 dereferenceable(48) %16) #13
  br label %delete.end20

delete.end20:                                     ; preds = %delete.notnull17, %delete.end14
  %m_data21 = getelementptr inbounds %class.b3GpuRaycast, ptr %this1, i32 0, i32 1
  %18 = load ptr, ptr %m_data21, align 8
  %m_gpuRays = getelementptr inbounds %struct.b3GpuRaycastInternalData, ptr %18, i32 0, i32 9
  %19 = load ptr, ptr %m_gpuRays, align 8
  %isnull22 = icmp eq ptr %19, null
  br i1 %isnull22, label %delete.end26, label %delete.notnull23

delete.notnull23:                                 ; preds = %delete.end20
  %vtable24 = load ptr, ptr %19, align 8
  %vfn25 = getelementptr inbounds ptr, ptr %vtable24, i64 1
  %20 = load ptr, ptr %vfn25, align 8
  call void %20(ptr noundef nonnull align 8 dereferenceable(50) %19) #13
  br label %delete.end26

delete.end26:                                     ; preds = %delete.notnull23, %delete.end20
  %m_data27 = getelementptr inbounds %class.b3GpuRaycast, ptr %this1, i32 0, i32 1
  %21 = load ptr, ptr %m_data27, align 8
  %m_gpuHitResults = getelementptr inbounds %struct.b3GpuRaycastInternalData, ptr %21, i32 0, i32 10
  %22 = load ptr, ptr %m_gpuHitResults, align 8
  %isnull28 = icmp eq ptr %22, null
  br i1 %isnull28, label %delete.end32, label %delete.notnull29

delete.notnull29:                                 ; preds = %delete.end26
  %vtable30 = load ptr, ptr %22, align 8
  %vfn31 = getelementptr inbounds ptr, ptr %vtable30, i64 1
  %23 = load ptr, ptr %vfn31, align 8
  call void %23(ptr noundef nonnull align 8 dereferenceable(50) %22) #13
  br label %delete.end32

delete.end32:                                     ; preds = %delete.notnull29, %delete.end26
  %m_data33 = getelementptr inbounds %class.b3GpuRaycast, ptr %this1, i32 0, i32 1
  %24 = load ptr, ptr %m_data33, align 8
  %m_firstRayRigidPairIndexPerRay = getelementptr inbounds %struct.b3GpuRaycastInternalData, ptr %24, i32 0, i32 11
  %25 = load ptr, ptr %m_firstRayRigidPairIndexPerRay, align 8
  %isnull34 = icmp eq ptr %25, null
  br i1 %isnull34, label %delete.end38, label %delete.notnull35

delete.notnull35:                                 ; preds = %delete.end32
  %vtable36 = load ptr, ptr %25, align 8
  %vfn37 = getelementptr inbounds ptr, ptr %vtable36, i64 1
  %26 = load ptr, ptr %vfn37, align 8
  call void %26(ptr noundef nonnull align 8 dereferenceable(50) %25) #13
  br label %delete.end38

delete.end38:                                     ; preds = %delete.notnull35, %delete.end32
  %m_data39 = getelementptr inbounds %class.b3GpuRaycast, ptr %this1, i32 0, i32 1
  %27 = load ptr, ptr %m_data39, align 8
  %m_numRayRigidPairsPerRay = getelementptr inbounds %struct.b3GpuRaycastInternalData, ptr %27, i32 0, i32 12
  %28 = load ptr, ptr %m_numRayRigidPairsPerRay, align 8
  %isnull40 = icmp eq ptr %28, null
  br i1 %isnull40, label %delete.end44, label %delete.notnull41

delete.notnull41:                                 ; preds = %delete.end38
  %vtable42 = load ptr, ptr %28, align 8
  %vfn43 = getelementptr inbounds ptr, ptr %vtable42, i64 1
  %29 = load ptr, ptr %vfn43, align 8
  call void %29(ptr noundef nonnull align 8 dereferenceable(50) %28) #13
  br label %delete.end44

delete.end44:                                     ; preds = %delete.notnull41, %delete.end38
  %m_data45 = getelementptr inbounds %class.b3GpuRaycast, ptr %this1, i32 0, i32 1
  %30 = load ptr, ptr %m_data45, align 8
  %m_gpuNumRayRigidPairs = getelementptr inbounds %struct.b3GpuRaycastInternalData, ptr %30, i32 0, i32 13
  %31 = load ptr, ptr %m_gpuNumRayRigidPairs, align 8
  %isnull46 = icmp eq ptr %31, null
  br i1 %isnull46, label %delete.end50, label %delete.notnull47

delete.notnull47:                                 ; preds = %delete.end44
  %vtable48 = load ptr, ptr %31, align 8
  %vfn49 = getelementptr inbounds ptr, ptr %vtable48, i64 1
  %32 = load ptr, ptr %vfn49, align 8
  call void %32(ptr noundef nonnull align 8 dereferenceable(50) %31) #13
  br label %delete.end50

delete.end50:                                     ; preds = %delete.notnull47, %delete.end44
  %m_data51 = getelementptr inbounds %class.b3GpuRaycast, ptr %this1, i32 0, i32 1
  %33 = load ptr, ptr %m_data51, align 8
  %m_gpuRayRigidPairs = getelementptr inbounds %struct.b3GpuRaycastInternalData, ptr %33, i32 0, i32 14
  %34 = load ptr, ptr %m_gpuRayRigidPairs, align 8
  %isnull52 = icmp eq ptr %34, null
  br i1 %isnull52, label %delete.end56, label %delete.notnull53

delete.notnull53:                                 ; preds = %delete.end50
  %vtable54 = load ptr, ptr %34, align 8
  %vfn55 = getelementptr inbounds ptr, ptr %vtable54, i64 1
  %35 = load ptr, ptr %vfn55, align 8
  call void %35(ptr noundef nonnull align 8 dereferenceable(50) %34) #13
  br label %delete.end56

delete.end56:                                     ; preds = %delete.notnull53, %delete.end50
  %m_data57 = getelementptr inbounds %class.b3GpuRaycast, ptr %this1, i32 0, i32 1
  %36 = load ptr, ptr %m_data57, align 8
  %isnull58 = icmp eq ptr %36, null
  br i1 %isnull58, label %delete.end60, label %delete.notnull59

delete.notnull59:                                 ; preds = %delete.end56
  call void @_ZdlPv(ptr noundef %36) #12
  br label %delete.end60

delete.end60:                                     ; preds = %delete.notnull59, %delete.end56
  ret void

terminate.lpad:                                   ; preds = %invoke.cont3, %invoke.cont, %entry
  %37 = landingpad { ptr, i32 }
          catch ptr null
  %38 = extractvalue { ptr, i32 } %37, 0
  call void @__clang_call_terminate(ptr %38) #14
  unreachable
}