; Function Attrs: mustprogress nounwind uwtable
define dso_local void @_ZN12b3GpuRaycastD2Ev(ptr nocapture noundef nonnull align 8 dereferenceable(16) %this) unnamed_addr #4 align 2 personality ptr @__gxx_personality_v0 {
entry:
  store ptr getelementptr inbounds ({ [4 x ptr] }, ptr @_ZTV12b3GpuRaycast, i64 0, i32 0, i64 2), ptr %this, align 8
  %0 = load ptr, ptr @__clewReleaseKernel, align 8
  %m_data = getelementptr inbounds i8, ptr %this, i64 8
  %1 = load ptr, ptr %m_data, align 8
  %m_raytraceKernel = getelementptr inbounds i8, ptr %1, i64 24
  %2 = load ptr, ptr %m_raytraceKernel, align 8
  %call = invoke i32 %0(ptr noundef %2)
          to label %invoke.cont unwind label %terminate.lpad

invoke.cont:                                      ; preds = %entry
  %3 = load ptr, ptr @__clewReleaseKernel, align 8
  %4 = load ptr, ptr %m_data, align 8
  %m_raytracePairsKernel = getelementptr inbounds i8, ptr %4, i64 32
  %5 = load ptr, ptr %m_raytracePairsKernel, align 8
  %call4 = invoke i32 %3(ptr noundef %5)
          to label %invoke.cont3 unwind label %terminate.lpad

invoke.cont3:                                     ; preds = %invoke.cont
  %6 = load ptr, ptr @__clewReleaseKernel, align 8
  %7 = load ptr, ptr %m_data, align 8
  %m_findRayRigidPairIndexRanges = getelementptr inbounds i8, ptr %7, i64 40
  %8 = load ptr, ptr %m_findRayRigidPairIndexRanges, align 8
  %call7 = invoke i32 %6(ptr noundef %8)
          to label %invoke.cont6 unwind label %terminate.lpad

invoke.cont6:                                     ; preds = %invoke.cont3
  %9 = load ptr, ptr %m_data, align 8
  %m_plbvh = getelementptr inbounds i8, ptr %9, i64 48
  %10 = load ptr, ptr %m_plbvh, align 8
  %isnull = icmp eq ptr %10, null
  br i1 %isnull, label %delete.end, label %delete.notnull

delete.notnull:                                   ; preds = %invoke.cont6
  %vtable = load ptr, ptr %10, align 8
  %vfn = getelementptr inbounds i8, ptr %vtable, i64 8
  %11 = load ptr, ptr %vfn, align 8
  tail call void %11(ptr noundef nonnull align 8 dereferenceable(1096) %10) #19
  %.pre = load ptr, ptr %m_data, align 8
  br label %delete.end

delete.end:                                       ; preds = %delete.notnull, %invoke.cont6
  %12 = phi ptr [ %.pre, %delete.notnull ], [ %9, %invoke.cont6 ]
  %m_radixSorter = getelementptr inbounds i8, ptr %12, i64 56
  %13 = load ptr, ptr %m_radixSorter, align 8
  %isnull10 = icmp eq ptr %13, null
  br i1 %isnull10, label %delete.end14, label %delete.notnull11

delete.notnull11:                                 ; preds = %delete.end
  %vtable12 = load ptr, ptr %13, align 8
  %vfn13 = getelementptr inbounds i8, ptr %vtable12, i64 8
  %14 = load ptr, ptr %vfn13, align 8
  tail call void %14(ptr noundef nonnull align 8 dereferenceable(128) %13) #19
  %.pre10 = load ptr, ptr %m_data, align 8
  br label %delete.end14

delete.end14:                                     ; preds = %delete.notnull11, %delete.end
  %15 = phi ptr [ %.pre10, %delete.notnull11 ], [ %12, %delete.end ]
  %m_fill = getelementptr inbounds i8, ptr %15, i64 64
  %16 = load ptr, ptr %m_fill, align 8
  %isnull16 = icmp eq ptr %16, null
  br i1 %isnull16, label %delete.end20, label %delete.notnull17

delete.notnull17:                                 ; preds = %delete.end14
  %vtable18 = load ptr, ptr %16, align 8
  %vfn19 = getelementptr inbounds i8, ptr %vtable18, i64 8
  %17 = load ptr, ptr %vfn19, align 8
  tail call void %17(ptr noundef nonnull align 8 dereferenceable(48) %16) #19
  %.pre11 = load ptr, ptr %m_data, align 8
  br label %delete.end20

delete.end20:                                     ; preds = %delete.notnull17, %delete.end14
  %18 = phi ptr [ %.pre11, %delete.notnull17 ], [ %15, %delete.end14 ]
  %m_gpuRays = getelementptr inbounds i8, ptr %18, i64 72
  %19 = load ptr, ptr %m_gpuRays, align 8
  %isnull22 = icmp eq ptr %19, null
  br i1 %isnull22, label %delete.end26, label %delete.notnull23

delete.notnull23:                                 ; preds = %delete.end20
  %vtable24 = load ptr, ptr %19, align 8
  %vfn25 = getelementptr inbounds i8, ptr %vtable24, i64 8
  %20 = load ptr, ptr %vfn25, align 8
  tail call void %20(ptr noundef nonnull align 8 dereferenceable(50) %19) #19
  %.pre12 = load ptr, ptr %m_data, align 8
  br label %delete.end26

delete.end26:                                     ; preds = %delete.notnull23, %delete.end20
  %21 = phi ptr [ %.pre12, %delete.notnull23 ], [ %18, %delete.end20 ]
  %m_gpuHitResults = getelementptr inbounds i8, ptr %21, i64 80
  %22 = load ptr, ptr %m_gpuHitResults, align 8
  %isnull28 = icmp eq ptr %22, null
  br i1 %isnull28, label %delete.end32, label %delete.notnull29

delete.notnull29:                                 ; preds = %delete.end26
  %vtable30 = load ptr, ptr %22, align 8
  %vfn31 = getelementptr inbounds i8, ptr %vtable30, i64 8
  %23 = load ptr, ptr %vfn31, align 8
  tail call void %23(ptr noundef nonnull align 8 dereferenceable(50) %22) #19
  %.pre13 = load ptr, ptr %m_data, align 8
  br label %delete.end32

delete.end32:                                     ; preds = %delete.notnull29, %delete.end26
  %24 = phi ptr [ %.pre13, %delete.notnull29 ], [ %21, %delete.end26 ]
  %m_firstRayRigidPairIndexPerRay = getelementptr inbounds i8, ptr %24, i64 88
  %25 = load ptr, ptr %m_firstRayRigidPairIndexPerRay, align 8
  %isnull34 = icmp eq ptr %25, null
  br i1 %isnull34, label %delete.end38, label %delete.notnull35

delete.notnull35:                                 ; preds = %delete.end32
  %vtable36 = load ptr, ptr %25, align 8
  %vfn37 = getelementptr inbounds i8, ptr %vtable36, i64 8
  %26 = load ptr, ptr %vfn37, align 8
  tail call void %26(ptr noundef nonnull align 8 dereferenceable(50) %25) #19
  %.pre14 = load ptr, ptr %m_data, align 8
  br label %delete.end38

delete.end38:                                     ; preds = %delete.notnull35, %delete.end32
  %27 = phi ptr [ %.pre14, %delete.notnull35 ], [ %24, %delete.end32 ]
  %m_numRayRigidPairsPerRay = getelementptr inbounds i8, ptr %27, i64 96
  %28 = load ptr, ptr %m_numRayRigidPairsPerRay, align 8
  %isnull40 = icmp eq ptr %28, null
  br i1 %isnull40, label %delete.end44, label %delete.notnull41

delete.notnull41:                                 ; preds = %delete.end38
  %vtable42 = load ptr, ptr %28, align 8
  %vfn43 = getelementptr inbounds i8, ptr %vtable42, i64 8
  %29 = load ptr, ptr %vfn43, align 8
  tail call void %29(ptr noundef nonnull align 8 dereferenceable(50) %28) #19
  %.pre15 = load ptr, ptr %m_data, align 8
  br label %delete.end44

delete.end44:                                     ; preds = %delete.notnull41, %delete.end38
  %30 = phi ptr [ %.pre15, %delete.notnull41 ], [ %27, %delete.end38 ]
  %m_gpuNumRayRigidPairs = getelementptr inbounds i8, ptr %30, i64 104
  %31 = load ptr, ptr %m_gpuNumRayRigidPairs, align 8
  %isnull46 = icmp eq ptr %31, null
  br i1 %isnull46, label %delete.end50, label %delete.notnull47

delete.notnull47:                                 ; preds = %delete.end44
  %vtable48 = load ptr, ptr %31, align 8
  %vfn49 = getelementptr inbounds i8, ptr %vtable48, i64 8
  %32 = load ptr, ptr %vfn49, align 8
  tail call void %32(ptr noundef nonnull align 8 dereferenceable(50) %31) #19
  %.pre16 = load ptr, ptr %m_data, align 8
  br label %delete.end50

delete.end50:                                     ; preds = %delete.notnull47, %delete.end44
  %33 = phi ptr [ %.pre16, %delete.notnull47 ], [ %30, %delete.end44 ]
  %m_gpuRayRigidPairs = getelementptr inbounds i8, ptr %33, i64 112
  %34 = load ptr, ptr %m_gpuRayRigidPairs, align 8
  %isnull52 = icmp eq ptr %34, null
  br i1 %isnull52, label %delete.notnull59, label %delete.end56

delete.end56:                                     ; preds = %delete.end50
  %vtable54 = load ptr, ptr %34, align 8
  %vfn55 = getelementptr inbounds i8, ptr %vtable54, i64 8
  %35 = load ptr, ptr %vfn55, align 8
  tail call void %35(ptr noundef nonnull align 8 dereferenceable(50) %34) #19
  %.pr = load ptr, ptr %m_data, align 8
  %isnull58 = icmp eq ptr %.pr, null
  br i1 %isnull58, label %delete.end60, label %delete.notnull59

delete.notnull59:                                 ; preds = %delete.end50, %delete.end56
  %36 = phi ptr [ %.pr, %delete.end56 ], [ %33, %delete.end50 ]
  tail call void @_ZdlPv(ptr noundef nonnull %36) #18
  br label %delete.end60

delete.end60:                                     ; preds = %delete.notnull59, %delete.end56
  ret void

terminate.lpad:                                   ; preds = %invoke.cont3, %invoke.cont, %entry
  %37 = landingpad { ptr, i32 }
          catch ptr null
  %38 = extractvalue { ptr, i32 } %37, 0
  tail call void @__clang_call_terminate(ptr %38) #20
  unreachable
}